target datalayout = "e-m:e-p270:32:32-p271:32:32-p272:64:64-i64:64-i128:128-f80:128-n8:16:32:64-S128"
target triple = "x86_64-pc-linux-gnu"

; Function Attrs: nounwind uwtable
define internal i32 @multmodp(i32 noundef %0, i32 noundef %1) #0 {
  %3 = alloca i32, align 4
  %4 = alloca i32, align 4
  %5 = alloca i32, align 4
  %6 = alloca i32, align 4
  store i32 %0, ptr %3, align 4, !tbaa !11
  store i32 %1, ptr %4, align 4, !tbaa !11
  call void @llvm.lifetime.start.p0(i64 4, ptr %5) #2
  call void @llvm.lifetime.start.p0(i64 4, ptr %6) #2
  store i32 -2147483648, ptr %5, align 4, !tbaa !11
  store i32 0, ptr %6, align 4, !tbaa !11
  br label %7

7:                                                ; preds = %36, %2
  %8 = load i32, ptr %3, align 4, !tbaa !11
  %9 = load i32, ptr %5, align 4, !tbaa !11
  %10 = and i32 %8, %9
  %11 = icmp ne i32 %10, 0
  br i1 %11, label %12, label %23

12:                                               ; preds = %7
  %13 = load i32, ptr %4, align 4, !tbaa !11
  %14 = load i32, ptr %6, align 4, !tbaa !11
  %15 = xor i32 %14, %13
  store i32 %15, ptr %6, align 4, !tbaa !11
  %16 = load i32, ptr %3, align 4, !tbaa !11
  %17 = load i32, ptr %5, align 4, !tbaa !11
  %18 = sub i32 %17, 1
  %19 = and i32 %16, %18
  %20 = icmp eq i32 %19, 0
  br i1 %20, label %21, label %22

21:                                               ; preds = %12
  br label %38

22:                                               ; preds = %12
  br label %23

23:                                               ; preds = %22, %7
  %24 = load i32, ptr %5, align 4, !tbaa !11
  %25 = lshr i32 %24, 1
  store i32 %25, ptr %5, align 4, !tbaa !11
  %26 = load i32, ptr %4, align 4, !tbaa !11
  %27 = and i32 %26, 1
  %28 = icmp ne i32 %27, 0
  br i1 %28, label %29, label %33

29:                                               ; preds = %23
  %30 = load i32, ptr %4, align 4, !tbaa !11
  %31 = lshr i32 %30, 1
  %32 = xor i32 %31, -306674912
  br label %36

33:                                               ; preds = %23
  %34 = load i32, ptr %4, align 4, !tbaa !11
  %35 = lshr i32 %34, 1
  br label %36

36:                                               ; preds = %33, %29
  %37 = phi i32 [ %32, %29 ], [ %35, %33 ]
  store i32 %37, ptr %4, align 4, !tbaa !11
  br label %7

38:                                               ; preds = %21
  %39 = load i32, ptr %6, align 4, !tbaa !11
  call void @llvm.lifetime.end.p0(i64 4, ptr %6) #2
  call void @llvm.lifetime.end.p0(i64 4, ptr %5) #2
  ret i32 %39
}

; Function Attrs: nounwind uwtable
define internal i32 @x2nmodp(i64 noundef %0, i32 noundef %1) #0 {
  %3 = alloca i64, align 8
  %4 = alloca i32, align 4
  %5 = alloca i32, align 4
  store i64 %0, ptr %3, align 8, !tbaa !3
  store i32 %1, ptr %4, align 4, !tbaa !11
  call void @llvm.lifetime.start.p0(i64 4, ptr %5) #2
  store i32 -2147483648, ptr %5, align 4, !tbaa !11
  br label %6

6:                                                ; preds = %21, %2
  %7 = load i64, ptr %3, align 8, !tbaa !3
  %8 = icmp ne i64 %7, 0
  br i1 %8, label %9, label %26

9:                                                ; preds = %6
  %10 = load i64, ptr %3, align 8, !tbaa !3
  %11 = and i64 %10, 1
  %12 = icmp ne i64 %11, 0
  br i1 %12, label %13, label %21

13:                                               ; preds = %9
  %14 = load i32, ptr %4, align 4, !tbaa !11
  %15 = and i32 %14, 31
  %16 = zext i32 %15 to i64
  %17 = getelementptr inbounds nuw [32 x i32], ptr @x2n_table, i64 0, i64 %16
  %18 = load i32, ptr %17, align 4, !tbaa !11
  %19 = load i32, ptr %5, align 4, !tbaa !11
  %20 = call i32 @multmodp(i32 noundef %18, i32 noundef %19)
  store i32 %20, ptr %5, align 4, !tbaa !11
  br label %21

21:                                               ; preds = %13, %9
  %22 = load i64, ptr %3, align 8, !tbaa !3
  %23 = ashr i64 %22, 1
  store i64 %23, ptr %3, align 8, !tbaa !3
  %24 = load i32, ptr %4, align 4, !tbaa !11
  %25 = add i32 %24, 1
  store i32 %25, ptr %4, align 4, !tbaa !11
  br label %6, !llvm.loop !25

26:                                               ; preds = %6
  %27 = load i32, ptr %5, align 4, !tbaa !11
  call void @llvm.lifetime.end.p0(i64 4, ptr %5) #2
  ret i32 %27
}

; Function Attrs: nounwind uwtable
define i64 @crc32_combine_gen64(i64 noundef %0) #0 {
  %2 = alloca i64, align 8
  store i64 %0, ptr %2, align 8, !tbaa !3
  %3 = load i64, ptr %2, align 8, !tbaa !3
  %4 = call i32 @x2nmodp(i64 noundef %3, i32 noundef 3)
  %5 = zext i32 %4 to i64
  ret i64 %5
}

; Function Attrs: nounwind uwtable
define i64 @crc32_combine_gen(i64 noundef %0) #0 {
  %2 = alloca i64, align 8
  store i64 %0, ptr %2, align 8, !tbaa !3
  %3 = load i64, ptr %2, align 8, !tbaa !3
  %4 = call i64 @crc32_combine_gen64(i64 noundef %3)
  ret i64 %4
}